target datalayout = "e-m:e-p270:32:32-p271:32:32-p272:64:64-i64:64-i128:128-f80:128-n8:16:32:64-S128"
target triple = "x86_64-pc-linux-gnu"

%struct.AVCodecContext = type { ptr, i32, i32, ptr, i32, i32, ptr, ptr, ptr, i64, i32, i32, ptr, i32, %struct.AVRational, %struct.AVRational, %struct.AVRational, i32, i32, i32, i32, i32, %struct.AVRational, i32, i32, i32, i32, i32, i32, i32, i32, i32, i32, i32, ptr, ptr, i32, float, float, float, float, float, float, float, float, float, i32, i32, i32, i32, i32, i32, i32, i32, i32, i32, i32, i32, ptr, ptr, ptr, i32, i32, i32, i32, i32, i32, i32, i32, i32, i32, %struct.AVChannelLayout, i32, i32, i32, i32, i32, i32, i32, i32, ptr, i32, i32, i32, float, float, i32, i32, i32, i32, i32, ptr, i64, i64, float, float, i32, i32, ptr, ptr, i32, i32, i32, i32, i32, ptr, ptr, ptr, ptr, i32, i32, [8 x i64], i32, i32, i32, i32, i32, i32, i32, ptr, ptr, i32, i32, i32, i32, i32, i32, i32, i32, i32, i32, ptr, ptr, i32, i32, ptr, ptr, ptr, ptr, i32, i32, i64, i32, i32, i64, ptr, i64, ptr, i32, ptr, i32 }
%struct.AVRational = type { i32, i32 }
%struct.AVChannelLayout = type { i32, i32, %union.anon.0, ptr }
%union.anon.0 = type { i64 }
%struct.MSCCContext = type { i32, i32, ptr, i32, ptr, %struct.FFZStream, [256 x i32] }
%struct.FFZStream = type { %struct.z_stream_s, i32 }
%struct.z_stream_s = type { ptr, i32, i64, ptr, i32, i64, ptr, ptr, ptr, ptr, ptr, i32, i64, i64 }

@.str.4 = private unnamed_addr constant [25 x i8] c"Unsupported bitdepth %i\0A\00", align 1

; Function Attrs: cold nounwind optsize uwtable
define internal i32 @decode_init(ptr noundef %0) #0 {
  %2 = alloca i32, align 4
  %3 = alloca ptr, align 8
  %4 = alloca ptr, align 8
  %5 = alloca i32, align 4
  %6 = alloca i32, align 4
  store ptr %0, ptr %3, align 8, !tbaa !4
  call void @llvm.lifetime.start.p0(i64 8, ptr %4) #8
  %7 = load ptr, ptr %3, align 8, !tbaa !4
  %8 = getelementptr inbounds nuw %struct.AVCodecContext, ptr %7, i32 0, i32 6
  %9 = load ptr, ptr %8, align 8, !tbaa !9
  store ptr %9, ptr %4, align 8, !tbaa !29
  call void @llvm.lifetime.start.p0(i64 4, ptr %5) #8
  %10 = load ptr, ptr %3, align 8, !tbaa !4
  %11 = getelementptr inbounds nuw %struct.AVCodecContext, ptr %10, i32 0, i32 114
  %12 = load i32, ptr %11, align 8, !tbaa !31
  switch i32 %12, label %25 [
    i32 8, label %13
    i32 16, label %16
    i32 24, label %19
    i32 32, label %22
  ]

13:                                               ; preds = %1
  %14 = load ptr, ptr %3, align 8, !tbaa !4
  %15 = getelementptr inbounds nuw %struct.AVCodecContext, ptr %14, i32 0, i32 23
  store i32 11, ptr %15, align 8, !tbaa !32
  br label %30

16:                                               ; preds = %1
  %17 = load ptr, ptr %3, align 8, !tbaa !4
  %18 = getelementptr inbounds nuw %struct.AVCodecContext, ptr %17, i32 0, i32 23
  store i32 39, ptr %18, align 8, !tbaa !32
  br label %30

19:                                               ; preds = %1
  %20 = load ptr, ptr %3, align 8, !tbaa !4
  %21 = getelementptr inbounds nuw %struct.AVCodecContext, ptr %20, i32 0, i32 23
  store i32 3, ptr %21, align 8, !tbaa !32
  br label %30

22:                                               ; preds = %1
  %23 = load ptr, ptr %3, align 8, !tbaa !4
  %24 = getelementptr inbounds nuw %struct.AVCodecContext, ptr %23, i32 0, i32 23
  store i32 28, ptr %24, align 8, !tbaa !32
  br label %30

25:                                               ; preds = %1
  %26 = load ptr, ptr %3, align 8, !tbaa !4
  %27 = load ptr, ptr %3, align 8, !tbaa !4
  %28 = getelementptr inbounds nuw %struct.AVCodecContext, ptr %27, i32 0, i32 114
  %29 = load i32, ptr %28, align 8, !tbaa !31
  call void (ptr, i32, ptr, ...) @av_log(ptr noundef %26, i32 noundef 16, ptr noundef @.str.4, i32 noundef %29)
  store i32 -1094995529, ptr %2, align 4
  store i32 1, ptr %6, align 4
  br label %86

30:                                               ; preds = %22, %19, %16, %13
  %31 = load ptr, ptr %3, align 8, !tbaa !4
  %32 = getelementptr inbounds nuw %struct.AVCodecContext, ptr %31, i32 0, i32 114
  %33 = load i32, ptr %32, align 8, !tbaa !31
  %34 = ashr i32 %33, 3
  %35 = load ptr, ptr %4, align 8, !tbaa !29
  %36 = getelementptr inbounds nuw %struct.MSCCContext, ptr %35, i32 0, i32 0
  store i32 %34, ptr %36, align 8, !tbaa !33
  %37 = load ptr, ptr %3, align 8, !tbaa !4
  %38 = getelementptr inbounds nuw %struct.AVCodecContext, ptr %37, i32 0, i32 18
  %39 = load i32, ptr %38, align 8, !tbaa !38
  %40 = load ptr, ptr %3, align 8, !tbaa !4
  %41 = getelementptr inbounds nuw %struct.AVCodecContext, ptr %40, i32 0, i32 114
  %42 = load i32, ptr %41, align 8, !tbaa !31
  %43 = mul nsw i32 %39, %42
  %44 = add nsw i32 %43, 31
  %45 = sdiv i32 %44, 32
  %46 = mul nsw i32 4, %45
  store i32 %46, ptr %5, align 4, !tbaa !39
  %47 = load ptr, ptr %3, align 8, !tbaa !4
  %48 = getelementptr inbounds nuw %struct.AVCodecContext, ptr %47, i32 0, i32 19
  %49 = load i32, ptr %48, align 4, !tbaa !40
  %50 = mul nsw i32 2, %49
  %51 = load i32, ptr %5, align 4, !tbaa !39
  %52 = mul nsw i32 %50, %51
  %53 = load ptr, ptr %4, align 8, !tbaa !29
  %54 = getelementptr inbounds nuw %struct.MSCCContext, ptr %53, i32 0, i32 1
  store i32 %52, ptr %54, align 4, !tbaa !41
  %55 = load ptr, ptr %4, align 8, !tbaa !29
  %56 = getelementptr inbounds nuw %struct.MSCCContext, ptr %55, i32 0, i32 1
  %57 = load i32, ptr %56, align 4, !tbaa !41
  %58 = zext i32 %57 to i64
  %59 = call noalias ptr @av_malloc(i64 noundef %58)
  %60 = load ptr, ptr %4, align 8, !tbaa !29
  %61 = getelementptr inbounds nuw %struct.MSCCContext, ptr %60, i32 0, i32 2
  store ptr %59, ptr %61, align 8, !tbaa !42
  %62 = icmp ne ptr %59, null
  br i1 %62, label %64, label %63

63:                                               ; preds = %30
  store i32 -12, ptr %2, align 4
  store i32 1, ptr %6, align 4
  br label %86

64:                                               ; preds = %30
  %65 = load ptr, ptr %3, align 8, !tbaa !4
  %66 = getelementptr inbounds nuw %struct.AVCodecContext, ptr %65, i32 0, i32 19
  %67 = load i32, ptr %66, align 4, !tbaa !40
  %68 = load i32, ptr %5, align 4, !tbaa !39
  %69 = mul nsw i32 %67, %68
  %70 = load ptr, ptr %4, align 8, !tbaa !29
  %71 = getelementptr inbounds nuw %struct.MSCCContext, ptr %70, i32 0, i32 3
  store i32 %69, ptr %71, align 8, !tbaa !43
  %72 = load ptr, ptr %4, align 8, !tbaa !29
  %73 = getelementptr inbounds nuw %struct.MSCCContext, ptr %72, i32 0, i32 3
  %74 = load i32, ptr %73, align 8, !tbaa !43
  %75 = zext i32 %74 to i64
  %76 = call noalias ptr @av_malloc(i64 noundef %75)
  %77 = load ptr, ptr %4, align 8, !tbaa !29
  %78 = getelementptr inbounds nuw %struct.MSCCContext, ptr %77, i32 0, i32 4
  store ptr %76, ptr %78, align 8, !tbaa !44
  %79 = icmp ne ptr %76, null
  br i1 %79, label %81, label %80

80:                                               ; preds = %64
  store i32 -12, ptr %2, align 4
  store i32 1, ptr %6, align 4
  br label %86

81:                                               ; preds = %64
  %82 = load ptr, ptr %4, align 8, !tbaa !29
  %83 = getelementptr inbounds nuw %struct.MSCCContext, ptr %82, i32 0, i32 5
  %84 = load ptr, ptr %3, align 8, !tbaa !4
  %85 = call i32 @ff_inflate_init(ptr noundef %83, ptr noundef %84)
  store i32 %85, ptr %2, align 4
  store i32 1, ptr %6, align 4
  br label %86

86:                                               ; preds = %81, %80, %63, %25
  call void @llvm.lifetime.end.p0(i64 4, ptr %5) #8
  call void @llvm.lifetime.end.p0(i64 8, ptr %4) #8
  %87 = load i32, ptr %2, align 4
  ret i32 %87
}