; Function Attrs: cold nounwind optsize uwtable
define internal i32 @decode_init(ptr noundef %0) #0 {
  %2 = getelementptr inbounds nuw i8, ptr %0, i64 32
  %3 = load ptr, ptr %2, align 8, !tbaa !4
  %4 = getelementptr inbounds nuw i8, ptr %0, i64 648
  %5 = load i32, ptr %4, align 8, !tbaa !27
  %6 = add i32 %5, -8
  %7 = tail call i32 @llvm.fshl.i32(i32 %6, i32 %6, i32 29)
  %8 = icmp ult i32 %7, 4
  br i1 %8, label %switch.lookup, label %9

9:                                                ; preds = %1
  tail call void (ptr, i32, ptr, ...) @av_log(ptr noundef nonnull %0, i32 noundef 16, ptr noundef nonnull @.str.4, i32 noundef %5) #7
  br label %37

switch.lookup:                                    ; preds = %1
  %10 = zext nneg i32 %7 to i64
  %switch.gep = getelementptr inbounds nuw [4 x i32], ptr @switch.table.decode_init, i64 0, i64 %10
  %switch.load = load i32, ptr %switch.gep, align 4
  %11 = getelementptr inbounds nuw i8, ptr %0, i64 136
  store i32 %switch.load, ptr %11, align 8, !tbaa !28
  %12 = ashr i32 %5, 3
  store i32 %12, ptr %3, align 8, !tbaa !29
  %13 = getelementptr inbounds nuw i8, ptr %0, i64 112
  %14 = load i32, ptr %13, align 8, !tbaa !34
  %15 = mul nsw i32 %14, %5
  %16 = add nsw i32 %15, 31
  %17 = sdiv i32 %16, 32
  %18 = shl nsw i32 %17, 2
  %19 = getelementptr inbounds nuw i8, ptr %0, i64 116
  %20 = load i32, ptr %19, align 4, !tbaa !35
  %21 = shl nsw i32 %20, 1
  %22 = mul nsw i32 %18, %21
  %23 = getelementptr inbounds nuw i8, ptr %3, i64 4
  store i32 %22, ptr %23, align 4, !tbaa !36
  %24 = zext i32 %22 to i64
  %25 = tail call noalias ptr @av_malloc(i64 noundef %24) #7
  %26 = getelementptr inbounds nuw i8, ptr %3, i64 8
  store ptr %25, ptr %26, align 8, !tbaa !37
  %.not = icmp eq ptr %25, null
  br i1 %.not, label %37, label %27

27:                                               ; preds = %switch.lookup
  %28 = load i32, ptr %19, align 4, !tbaa !35
  %29 = mul nsw i32 %28, %18
  %30 = getelementptr inbounds nuw i8, ptr %3, i64 16
  store i32 %29, ptr %30, align 8, !tbaa !38
  %31 = zext i32 %29 to i64
  %32 = tail call noalias ptr @av_malloc(i64 noundef %31) #7
  %33 = getelementptr inbounds nuw i8, ptr %3, i64 24
  store ptr %32, ptr %33, align 8, !tbaa !39
  %.not24 = icmp eq ptr %32, null
  br i1 %.not24, label %37, label %34

34:                                               ; preds = %27
  %35 = getelementptr inbounds nuw i8, ptr %3, i64 32
  %36 = tail call i32 @ff_inflate_init(ptr noundef nonnull %35, ptr noundef nonnull %0) #7
  br label %37

37:                                               ; preds = %27, %switch.lookup, %34, %9
  %.0 = phi i32 [ -1094995529, %9 ], [ %36, %34 ], [ -12, %switch.lookup ], [ -12, %27 ]
  ret i32 %.0
}